; Function Attrs: nounwind uwtable
define ptr @l_Lean_Meta_splitIfLocalDecl_x3f(ptr noundef %0, ptr noundef %1, ptr noundef %2, ptr noundef %3, ptr noundef %4, ptr noundef %5, ptr noundef %6, ptr noundef %7) local_unnamed_addr #1 {
  %9 = ptrtoint ptr %1 to i64
  %10 = and i64 %9, 1
  %.not = icmp eq i64 %10, 0
  br i1 %.not, label %11, label %lean_inc.exit22

11:                                               ; preds = %8
  %.val.i = load i32, ptr %1, align 4, !tbaa !4
  %12 = icmp sgt i32 %.val.i, 0
  br i1 %12, label %13, label %15, !prof !9

13:                                               ; preds = %11
  %14 = add nuw i32 %.val.i, 1
  store i32 %14, ptr %1, align 4, !tbaa !4
  br label %lean_inc.exit22

15:                                               ; preds = %11
  %.not.i = icmp eq i32 %.val.i, 0
  br i1 %.not.i, label %lean_inc.exit22, label %16

16:                                               ; preds = %15
  tail call void @lean_inc_ref_cold(ptr noundef nonnull %1) #7
  br label %lean_inc.exit22

lean_inc.exit22:                                  ; preds = %16, %15, %13, %8
  %17 = tail call ptr @l_Lean_Expr_fvar___override(ptr noundef %1) #7
  %18 = ptrtoint ptr %0 to i64
  %19 = and i64 %18, 1
  %.not27 = icmp eq i64 %19, 0
  br i1 %.not27, label %20, label %lean_inc.exit

20:                                               ; preds = %lean_inc.exit22
  %.val.i23 = load i32, ptr %0, align 4, !tbaa !4
  %21 = icmp sgt i32 %.val.i23, 0
  br i1 %21, label %22, label %24, !prof !9

22:                                               ; preds = %20
  %23 = add nuw i32 %.val.i23, 1
  store i32 %23, ptr %0, align 4, !tbaa !4
  br label %lean_inc.exit

24:                                               ; preds = %20
  %.not.i24 = icmp eq i32 %.val.i23, 0
  br i1 %.not.i24, label %lean_inc.exit, label %25

25:                                               ; preds = %24
  tail call void @lean_inc_ref_cold(ptr noundef nonnull %0) #7
  br label %lean_inc.exit

lean_inc.exit:                                    ; preds = %25, %24, %22, %lean_inc.exit22
  tail call void @lean_inc_heartbeat() #7
  %26 = tail call noalias ptr @mi_malloc_small(i64 noundef 56) #7
  %27 = icmp eq ptr %26, null
  br i1 %27, label %28, label %lean_alloc_closure.exit

28:                                               ; preds = %lean_inc.exit
  tail call void @lean_internal_panic_out_of_memory() #8
  unreachable

lean_alloc_closure.exit:                          ; preds = %lean_inc.exit
  %29 = getelementptr inbounds nuw i8, ptr %26, i64 4
  store i32 1, ptr %26, align 4, !tbaa !4
  store i32 -184549320, ptr %29, align 4
  %30 = getelementptr inbounds nuw i8, ptr %26, i64 8
  store ptr @l_Lean_Meta_splitIfLocalDecl_x3f___lambda__1, ptr %30, align 8, !tbaa !10
  %31 = getelementptr inbounds nuw i8, ptr %26, i64 16
  store i16 9, ptr %31, align 8, !tbaa !12
  %32 = getelementptr inbounds nuw i8, ptr %26, i64 18
  store i16 4, ptr %32, align 2, !tbaa !12
  %33 = getelementptr inbounds nuw i8, ptr %26, i64 24
  store ptr %17, ptr %33, align 8, !tbaa !10
  %34 = getelementptr inbounds nuw i8, ptr %26, i64 32
  store ptr %0, ptr %34, align 8, !tbaa !10
  %35 = getelementptr inbounds nuw i8, ptr %26, i64 40
  store ptr %2, ptr %35, align 8, !tbaa !10
  %36 = getelementptr inbounds nuw i8, ptr %26, i64 48
  store ptr %1, ptr %36, align 8, !tbaa !10
  tail call void @lean_inc_heartbeat() #7
  %37 = tail call noalias ptr @mi_malloc_small(i64 noundef 40) #7
  %38 = icmp eq ptr %37, null
  br i1 %38, label %39, label %lean_alloc_closure.exit26

39:                                               ; preds = %lean_alloc_closure.exit
  tail call void @lean_internal_panic_out_of_memory() #8
  unreachable

lean_alloc_closure.exit26:                        ; preds = %lean_alloc_closure.exit
  %40 = getelementptr inbounds nuw i8, ptr %37, i64 4
  store i32 1, ptr %37, align 4, !tbaa !4
  store i32 -184549336, ptr %40, align 4
  %41 = getelementptr inbounds nuw i8, ptr %37, i64 8
  store ptr @l_Lean_MVarId_withContext___at___private_Lean_Meta_SynthInstance_0__Lean_Meta_synthPendingImp___spec__2___rarg, ptr %41, align 8, !tbaa !10
  %42 = getelementptr inbounds nuw i8, ptr %37, i64 16
  store i16 7, ptr %42, align 8, !tbaa !12
  %43 = getelementptr inbounds nuw i8, ptr %37, i64 18
  store i16 2, ptr %43, align 2, !tbaa !12
  %44 = getelementptr inbounds nuw i8, ptr %37, i64 24
  store ptr %0, ptr %44, align 8, !tbaa !10
  %45 = getelementptr inbounds nuw i8, ptr %37, i64 32
  store ptr %26, ptr %45, align 8, !tbaa !10
  %46 = tail call ptr @l_Lean_commitWhenSome_x3f___at_Lean_Meta_splitIfLocalDecl_x3f___spec__1(ptr noundef nonnull %37, ptr noundef %3, ptr noundef %4, ptr noundef %5, ptr noundef %6, ptr noundef %7)
  ret ptr %46
}